; Function Attrs: mustprogress uwtable
define internal fastcc noundef zeroext i1 @_ZN4LuauL8subsumesINS_11GenericTypeES1_EEbbPT_PT0_(i1 noundef zeroext %0, ptr noundef nonnull readonly captures(none) %1, ptr noundef nonnull readonly captures(none) %2) unnamed_addr #2 {
  br i1 %0, label %4, label %10

4:                                                ; preds = %3
  %5 = getelementptr inbounds nuw i8, ptr %1, i64 16
  %6 = load ptr, ptr %5, align 8, !tbaa !207
  %7 = getelementptr inbounds nuw i8, ptr %2, i64 16
  %8 = load ptr, ptr %7, align 8, !tbaa !207
  %9 = tail call noundef zeroext i1 @_ZN4Luau8subsumesEPNS_5ScopeES1_(ptr noundef %6, ptr noundef %8)
  br label %_ZNK4Luau9TypeLevel8subsumesERKS0_.exit

10:                                               ; preds = %3
  %11 = getelementptr inbounds nuw i8, ptr %1, i64 4
  %12 = getelementptr inbounds nuw i8, ptr %2, i64 4
  %13 = load i32, ptr %11, align 4, !tbaa !205
  %14 = load i32, ptr %12, align 4, !tbaa !205
  %15 = icmp slt i32 %13, %14
  br i1 %15, label %_ZNK4Luau9TypeLevel8subsumesERKS0_.exit, label %16

16:                                               ; preds = %10
  %17 = icmp sgt i32 %13, %14
  br i1 %17, label %_ZNK4Luau9TypeLevel8subsumesERKS0_.exit, label %18

18:                                               ; preds = %16
  %19 = getelementptr inbounds nuw i8, ptr %1, i64 8
  %20 = load i32, ptr %19, align 4, !tbaa !206
  %21 = getelementptr inbounds nuw i8, ptr %2, i64 8
  %22 = load i32, ptr %21, align 4, !tbaa !206
  %23 = icmp eq i32 %20, %22
  br label %_ZNK4Luau9TypeLevel8subsumesERKS0_.exit

_ZNK4Luau9TypeLevel8subsumesERKS0_.exit:          ; preds = %18, %16, %10, %4
  %.0 = phi i1 [ %9, %4 ], [ true, %10 ], [ false, %16 ], [ %23, %18 ]
  ret i1 %.0
}